(lp1
(dp2
S'eea.meeting'
p3
ccopy_reg
_reconstructor
p4
(cmr.developer.extension
Source
p5
c__builtin__
dict
p6
(dp7
S'url'
p8
S'https://github.com/eea/eea.meeting.git'
p9
sS'pushurl'
p10
S'git@github.com:eea/eea.meeting.git'
p11
sS'kind'
p12
S'git'
p13
sS'name'
p14
g3
sS'path'
p15
S'/home/ghitabizau/work/plone4.buildout/src/eea.meeting'
p16
stRp17
sS'land.copernicus.theme'
p18
g4
(g5
g6
(dp19
g8
S'https://github.com/eea/land.copernicus.theme.git'
p20
sS'pushurl'
p21
S'git@github.com:eea/land.copernicus.theme.git'
p22
sg12
S'git'
p23
sg14
g18
sg15
S'/home/ghitabizau/work/plone4.buildout/src/land.copernicus.theme'
p24
stRp25
sS'eea.rabbitmq.plone'
p26
g4
(g5
g6
(dp27
g8
S'https://github.com/eea/eea.rabbitmq.plone.git'
p28
sS'pushurl'
p29
S'git@github.com:eea/eea.rabbitmq.plone.git'
p30
sg12
S'git'
p31
sg14
g26
sg15
S'/home/ghitabizau/work/plone4.buildout/src/eea.rabbitmq.plone'
p32
stRp33
sS'land.copernicus.content'
p34
g4
(g5
g6
(dp35
g8
S'https://github.com/eea/land.copernicus.content.git'
p36
sS'pushurl'
p37
S'git@github.com:eea/land.copernicus.content.git'
p38
sg12
S'git'
p39
sg14
g34
sg15
S'/home/ghitabizau/work/plone4.buildout/src/land.copernicus.content'
p40
stRp41
sS'eea.rdfmarshaller'
p42
g4
(g5
g6
(dp43
g8
S'https://github.com/eea/eea.rdfmarshaller.git'
p44
sS'pushurl'
p45
S'git@github.com:eea/eea.rdfmarshaller.git'
p46
sg12
S'git'
p47
sg14
g42
sg15
S'/home/ghitabizau/work/plone4.buildout/src/eea.rdfmarshaller'
p48
stRp49
sac__builtin__
set
p50
((lp51
S'eea.meeting'
p52
aS'land.copernicus.theme'
p53
aS'eea.rabbitmq.plone'
p54
aS'land.copernicus.content'
p55
aS'eea.rdfmarshaller'
p56
atRp57
a.